Certificate:
    Data:
        Version: 3 (0x2)
        Serial Number: 1166016512 (0x45800000)
    Signature Algorithm: sha1WithRSAEncryption
        Issuer: C=CA, ST=Manitoba, L=Winnipeg, O=vpnLab, CN=Aaron/emailAddress=noyesa@myumanitoba.ca
        Validity
            Not Before: Mar 28 19:11:25 2020 GMT
            Not After : Mar 28 19:11:25 2021 GMT
        Subject: C=CA, ST=Manitoba, O=vpnLab, CN=Aaron/emailAddress=noyesa@myumanitoba.ca
        Subject Public Key Info:
            Public Key Algorithm: rsaEncryption
                Public-Key: (1024 bit)
                Modulus:
                    00:b5:0c:b2:eb:9f:de:be:c1:f4:cb:45:ec:e3:b4:
                    0f:93:fc:c5:15:0d:27:e0:88:47:98:6c:da:57:e5:
                    76:75:9e:34:c5:9d:67:fb:e4:57:77:6a:a6:b7:5f:
                    1f:1c:f4:d9:30:5c:d7:10:a4:78:38:61:67:e9:22:
                    1d:56:57:04:47:86:28:12:70:74:0a:62:dd:de:34:
                    b6:d5:f3:99:73:84:d2:c3:71:44:59:cb:67:6c:80:
                    66:83:46:12:14:61:b1:04:67:2e:d0:7a:58:65:73:
                    28:59:61:18:0e:8a:ef:10:a2:a3:cd:ae:ca:ed:f4:
                    9f:dc:79:9d:af:e7:9e:be:65
                Exponent: 65537 (0x10001)
        X509v3 extensions:
            X509v3 Basic Constraints: 
                CA:FALSE
            Netscape Comment: 
                OpenSSL Generated Certificate
            X509v3 Subject Key Identifier: 
                16:40:62:11:78:2E:48:90:F0:01:81:11:73:CB:4D:D9:BF:F4:B0:71
            X509v3 Authority Key Identifier: 
                keyid:4D:54:17:EB:6B:AD:1F:44:A0:69:33:F5:48:0B:30:F8:BF:01:6B:60

    Signature Algorithm: sha1WithRSAEncryption
         46:aa:6f:8b:32:fc:2f:73:b2:6d:c6:b2:a8:f7:de:bf:15:7a:
         f2:c3:4a:3f:69:13:e0:6e:09:e4:1d:6e:49:2e:3d:04:a1:92:
         72:35:ec:2f:00:c0:7c:72:08:6c:37:22:57:2a:46:89:68:5c:
         ba:6c:74:6a:32:bb:b4:fc:7b:cb:48:7c:59:ba:63:fb:57:5e:
         5a:28:56:ed:da:ba:69:a3:ea:a9:80:76:4b:b9:27:2b:5d:74:
         14:92:d9:a2:16:2a:33:10:50:0f:64:f3:d5:58:cb:1f:ad:4d:
         73:2b:8e:c6:7a:bc:0c:7f:7b:5f:d8:8e:64:ce:fc:55:3d:31:
         db:23
-----BEGIN CERTIFICATE-----
MIIC1TCCAj6gAwIBAgIERYAAADANBgkqhkiG9w0BAQUFADB6MQswCQYDVQQGEwJD
QTERMA8GA1UECAwITWFuaXRvYmExETAPBgNVBAcMCFdpbm5pcGVnMQ8wDQYDVQQK
DAZ2cG5MYWIxDjAMBgNVBAMMBUFhcm9uMSQwIgYJKoZIhvcNAQkBFhVub3llc2FA
bXl1bWFuaXRvYmEuY2EwHhcNMjAwMzI4MTkxMTI1WhcNMjEwMzI4MTkxMTI1WjBn
MQswCQYDVQQGEwJDQTERMA8GA1UECAwITWFuaXRvYmExDzANBgNVBAoMBnZwbkxh
YjEOMAwGA1UEAwwFQWFyb24xJDAiBgkqhkiG9w0BCQEWFW5veWVzYUBteXVtYW5p
dG9iYS5jYTCBnzANBgkqhkiG9w0BAQEFAAOBjQAwgYkCgYEAtQyy65/evsH0y0Xs
47QPk/zFFQ0n4IhHmGzaV+V2dZ40xZ1n++RXd2qmt18fHPTZMFzXEKR4OGFn6SId
VlcER4YoEnB0CmLd3jS21fOZc4TSw3FEWctnbIBmg0YSFGGxBGcu0HpYZXMoWWEY
DorvEKKjza7K7fSf3Hmdr+eevmUCAwEAAaN7MHkwCQYDVR0TBAIwADAsBglghkgB
hvhCAQ0EHxYdT3BlblNTTCBHZW5lcmF0ZWQgQ2VydGlmaWNhdGUwHQYDVR0OBBYE
FBZAYhF4LkiQ8AGBEXPLTdm/9LBxMB8GA1UdIwQYMBaAFE1UF+trrR9EoGkz9UgL
MPi/AWtgMA0GCSqGSIb3DQEBBQUAA4GBAEaqb4sy/C9zsm3Gsqj33r8VevLDSj9p
E+BuCeQdbkkuPQShknI17C8AwHxyCGw3IlcqRoloXLpsdGoyu7T8e8tIfFm6Y/tX
XlooVu3aummj6qmAdku5JytddBSS2aIWKjMQUA9k89VYyx+tTXMrjsZ6vAx/e1/Y
jmTO/FU9Mdsj
-----END CERTIFICATE-----
