Certificate:
    Data:
        Version: 3 (0x2)
        Serial Number: 1166016514 (0x45800002)
    Signature Algorithm: sha1WithRSAEncryption
        Issuer: C=CA, ST=Manitoba, L=Winnipeg, O=vpnLab, CN=Aaron/emailAddress=noyesa@myumanitoba.ca
        Validity
            Not Before: Mar 28 19:21:25 2020 GMT
            Not After : Mar 28 19:21:25 2021 GMT
        Subject: C=CA, ST=Manitoba, O=vpnLab, CN=Server/emailAddress=noyesa@myumanitoba.ca
        Subject Public Key Info:
            Public Key Algorithm: rsaEncryption
                Public-Key: (1024 bit)
                Modulus:
                    00:b5:0c:b2:eb:9f:de:be:c1:f4:cb:45:ec:e3:b4:
                    0f:93:fc:c5:15:0d:27:e0:88:47:98:6c:da:57:e5:
                    76:75:9e:34:c5:9d:67:fb:e4:57:77:6a:a6:b7:5f:
                    1f:1c:f4:d9:30:5c:d7:10:a4:78:38:61:67:e9:22:
                    1d:56:57:04:47:86:28:12:70:74:0a:62:dd:de:34:
                    b6:d5:f3:99:73:84:d2:c3:71:44:59:cb:67:6c:80:
                    66:83:46:12:14:61:b1:04:67:2e:d0:7a:58:65:73:
                    28:59:61:18:0e:8a:ef:10:a2:a3:cd:ae:ca:ed:f4:
                    9f:dc:79:9d:af:e7:9e:be:65
                Exponent: 65537 (0x10001)
        X509v3 extensions:
            X509v3 Basic Constraints: 
                CA:FALSE
            Netscape Comment: 
                OpenSSL Generated Certificate
            X509v3 Subject Key Identifier: 
                16:40:62:11:78:2E:48:90:F0:01:81:11:73:CB:4D:D9:BF:F4:B0:71
            X509v3 Authority Key Identifier: 
                keyid:4D:54:17:EB:6B:AD:1F:44:A0:69:33:F5:48:0B:30:F8:BF:01:6B:60

    Signature Algorithm: sha1WithRSAEncryption
         35:e0:42:36:b6:c2:43:af:ea:4f:27:df:16:bb:65:f7:65:df:
         46:3f:88:f9:ae:fd:76:d3:ee:89:28:d2:65:38:fb:8b:d2:c1:
         8d:eb:eb:d6:fd:0c:92:e7:bc:e4:1f:0e:8c:cd:b4:2a:76:a4:
         4e:e5:c0:12:3d:0c:28:6c:a3:36:20:5f:38:5d:b4:00:36:2b:
         e9:31:88:d5:5e:47:ea:31:9a:f5:7d:0e:b4:23:08:2e:00:d5:
         85:67:37:90:ed:fe:b0:25:00:9c:e9:43:00:d9:fe:46:51:7a:
         0a:93:30:b4:19:cc:be:97:60:1e:2e:df:93:7e:20:01:ac:f9:
         a1:87
-----BEGIN CERTIFICATE-----
MIIC1jCCAj+gAwIBAgIERYAAAjANBgkqhkiG9w0BAQUFADB6MQswCQYDVQQGEwJD
QTERMA8GA1UECAwITWFuaXRvYmExETAPBgNVBAcMCFdpbm5pcGVnMQ8wDQYDVQQK
DAZ2cG5MYWIxDjAMBgNVBAMMBUFhcm9uMSQwIgYJKoZIhvcNAQkBFhVub3llc2FA
bXl1bWFuaXRvYmEuY2EwHhcNMjAwMzI4MTkyMTI1WhcNMjEwMzI4MTkyMTI1WjBo
MQswCQYDVQQGEwJDQTERMA8GA1UECAwITWFuaXRvYmExDzANBgNVBAoMBnZwbkxh
YjEPMA0GA1UEAwwGU2VydmVyMSQwIgYJKoZIhvcNAQkBFhVub3llc2FAbXl1bWFu
aXRvYmEuY2EwgZ8wDQYJKoZIhvcNAQEBBQADgY0AMIGJAoGBALUMsuuf3r7B9MtF
7OO0D5P8xRUNJ+CIR5hs2lfldnWeNMWdZ/vkV3dqprdfHxz02TBc1xCkeDhhZ+ki
HVZXBEeGKBJwdApi3d40ttXzmXOE0sNxRFnLZ2yAZoNGEhRhsQRnLtB6WGVzKFlh
GA6K7xCio82uyu30n9x5na/nnr5lAgMBAAGjezB5MAkGA1UdEwQCMAAwLAYJYIZI
AYb4QgENBB8WHU9wZW5TU0wgR2VuZXJhdGVkIENlcnRpZmljYXRlMB0GA1UdDgQW
BBQWQGIReC5IkPABgRFzy03Zv/SwcTAfBgNVHSMEGDAWgBRNVBfra60fRKBpM/VI
CzD4vwFrYDANBgkqhkiG9w0BAQUFAAOBgQA14EI2tsJDr+pPJ98Wu2X3Zd9GP4j5
rv120+6JKNJlOPuL0sGN6+vW/QyS57zkHw6MzbQqdqRO5cASPQwobKM2IF84XbQA
NivpMYjVXkfqMZr1fQ60IwguANWFZzeQ7f6wJQCc6UMA2f5GUXoKkzC0Gcy+l2Ae
Lt+TfiABrPmhhw==
-----END CERTIFICATE-----
